(dp0
I1
(lp1
I6
aI31
asI2
(lp2
I7
aI22
asI3
(lp3
I6
aI28
asI4
(lp4
I3
aI31
asI5
(lp5
I4
aI28
asI6
(lp6
I3
aI42
asI7
(lp7
I4
aI49
asI8
(lp8
I3
aI42
asI9
(lp9
I9
aI53
asI10
(lp10
I3
aI32
asI11
(lp11
I3
aI46
asI12
(lp12
I3
aI42
asI13
(lp13
I3
aI24
asI14
(lp14
I4
aI48
asI15
(lp15
I4
aI42
asI16
(lp16
I3
aI34
asI17
(lp17
I4
aI42
asI18
(lp18
I3
aI31
asI19
(lp19
I3
aI28
asI20
(lp20
I4
aI29
asI21
(lp21
I2
aI20
asI22
(lp22
I5
aI30
asI23
(lp23
I4
aI32
asI53
(lp24
I2
aI22
asI54
(lp25
I4
aI28
as.