(dp0
I1
(lp1
I8
aI21
asI2
(lp2
I9
aI19
asI3
(lp3
I8
aI23
asI4
(lp4
I5
aI25
asI5
(lp5
I8
aI24
asI6
(lp6
I6
aI34
asI7
(lp7
I8
aI40
asI8
(lp8
I5
aI34
asI9
(lp9
I15
aI38
asI10
(lp10
I6
aI24
asI11
(lp11
I6
aI29
asI12
(lp12
I6
aI32
asI13
(lp13
I5
aI19
asI14
(lp14
I8
aI41
asI15
(lp15
I8
aI36
asI16
(lp16
I8
aI28
asI17
(lp17
I10
aI30
asI18
(lp18
I6
aI27
asI19
(lp19
I5
aI23
asI20
(lp20
I8
aI24
asI21
(lp21
I4
aI18
asI22
(lp22
I7
aI23
asI23
(lp23
I6
aI29
asI53
(lp24
I4
aI16
asI54
(lp25
I6
aI23
as.