(dp0
I1
(lp1
I7
aI23
asI2
(lp2
I8
aI20
asI3
(lp3
I7
aI27
asI4
(lp4
I4
aI30
asI5
(lp5
I6
aI26
asI6
(lp6
I4
aI35
asI7
(lp7
I6
aI44
asI8
(lp8
I4
aI35
asI9
(lp9
I13
aI45
asI10
(lp10
I4
aI26
asI11
(lp11
I4
aI33
asI12
(lp12
I4
aI38
asI13
(lp13
I4
aI20
asI14
(lp14
I6
aI44
asI15
(lp15
I6
aI38
asI16
(lp16
I6
aI29
asI17
(lp17
I7
aI36
asI18
(lp18
I4
aI29
asI19
(lp19
I4
aI25
asI20
(lp20
I7
aI27
asI21
(lp21
I3
aI19
asI22
(lp22
I6
aI26
asI23
(lp23
I5
aI30
asI53
(lp24
I3
aI18
asI54
(lp25
I5
aI26
as.