(dp0
I1
(lp1
I9
aI20
asI2
(lp2
I9
aI18
asI3
(lp3
I9
aI21
asI4
(lp4
I6
aI24
asI5
(lp5
I9
aI23
asI6
(lp6
I8
aI33
asI7
(lp7
I10
aI38
asI8
(lp8
I6
aI32
asI9
(lp9
I17
aI36
asI10
(lp10
I7
aI23
asI11
(lp11
I7
aI25
asI12
(lp12
I7
aI28
asI13
(lp13
I7
aI18
asI14
(lp14
I12
aI39
asI15
(lp15
I9
aI33
asI16
(lp16
I10
aI26
asI17
(lp17
I11
aI28
asI18
(lp18
I7
aI26
asI19
(lp19
I6
aI21
asI20
(lp20
I9
aI22
asI21
(lp21
I5
aI17
asI22
(lp22
I8
aI22
asI23
(lp23
I8
aI25
asI53
(lp24
I5
aI15
asI54
(lp25
I7
aI21
as.