(dp0
I1
(lp1
I9
aI16
aI14
aI15
aI13
aI11
aI19
aI11
aI21
aI17
aI15
aI13
aI13
aI13
aI10
aI13
aI30
aI12
aI12
aI13
aI13
aI11
aI16
aI15
aI13
aI7
aI14
aI18
aI14
aI10
aI13
aI9
aI17
aI6
aI16
aI12
aI14
aI9
aI21
aI21
aI11
aI12
aI15
aI13
aI17
aI9
aI12
aI33
aI14
aI12
aI15
aI13
aI16
aI14
aI20
aI12
aI11
aI12
aI9
aI14
aI14
aI11
aI16
aI13
aI15
aI9
aI16
aI11
aI8
aI14
aI1
aI6
aI11
aI12
aI14
aI9
aI14
aI13
aI17
aI13
aI15
aI10
aI14
aI11
aI13
aI17
aI19
aI13
aI16
aI15
aI16
asI2
(lp2
I8
aI15
aI12
aI13
aI10
aI11
aI15
aI9
aI18
aI16
aI12
aI11
aI11
aI13
aI11
aI20
aI10
aI11
aI8
aI6
aI10
aI14
aI10
aI13
aI11
aI13
aI12
aI16
aI11
aI10
aI9
aI7
aI17
aI14
aI10
aI17
aI7
aI19
aI15
aI11
aI10
aI11
aI11
aI12
aI8
aI12
aI26
aI12
aI8
aI11
aI14
aI10
aI14
aI12
aI13
aI10
aI9
aI11
aI11
aI11
aI12
aI10
aI14
aI11
aI12
aI7
aI14
aI9
aI19
aI11
aI12
aI10
aI11
aI11
aI10
aI12
aI12
aI16
aI10
aI12
aI9
aI9
aI12
aI14
aI17
aI11
aI15
aI16
aI13
aI14
asI3
(lp3
I7
aI19
aI18
aI15
aI15
aI11
aI19
aI13
aI29
aI26
aI14
aI12
aI19
aI18
aI12
aI15
aI14
aI13
aI18
aI14
aI13
aI13
aI17
aI15
aI17
aI16
aI18
aI15
aI17
aI13
aI20
aI13
aI6
aI13
aI8
aI19
aI13
aI12
aI15
aI9
aI27
aI17
aI19
aI13
aI14
aI15
aI14
aI10
aI14
aI20
aI15
aI14
aI9
aI14
aI14
aI16
aI17
aI20
aI13
aI3
aI13
aI11
aI15
aI15
aI17
aI14
aI19
aI14
aI12
aI11
aI17
aI13
aI18
aI13
aI11
aI12
aI12
aI13
aI9
aI13
aI12
aI15
aI13
aI14
aI13
aI11
aI10
aI16
aI12
aI22
aI15
aI18
aI19
aI15
aI18
asI4
(lp4
I12
aI10
aI5
aI39
aI11
aI1
aI18
aI16
aI2
aI4
aI3
aI23
aI31
aI13
aI6
aI6
aI6
aI12
aI25
aI5
aI22
aI23
aI17
aI24
aI21
aI24
aI17
aI9
aI1
aI22
aI30
asI5
(lp5
I21
aI20
aI17
aI15
aI3
aI21
aI15
aI35
aI28
aI15
aI18
aI16
aI10
aI17
aI19
aI15
aI14
aI15
aI14
aI20
aI15
aI18
aI21
aI17
aI15
aI2
aI23
aI16
aI14
aI8
aI19
aI14
aI15
aI11
aI26
aI22
aI22
aI17
aI18
aI17
aI14
aI11
aI12
aI17
aI13
aI10
aI16
aI18
aI19
aI17
aI15
aI16
aI12
aI13
aI16
aI15
aI19
aI14
aI20
aI13
aI3
aI10
aI12
aI7
aI14
aI14
aI16
aI15
aI16
aI12
aI5
aI18
aI24
aI16
aI21
aI15
aI21
asI6
(lp6
I17
aI2
aI1
aI3
aI35
aI8
aI31
aI4
aI8
aI25
aI10
aI1
aI3
aI4
aI28
aI3
aI57
aI7
aI9
aI13
aI16
aI19
aI43
aI11
aI26
aI7
aI23
aI33
aI21
aI3
aI4
aI21
aI32
aI2
aI34
asI7
(lp7
I36
aI7
aI16
aI4
aI14
aI5
aI22
aI42
aI5
aI19
aI66
aI54
aI28
aI29
aI14
aI5
aI22
aI26
aI1
aI32
aI30
aI16
aI25
aI10
aI15
aI26
aI25
aI34
aI25
aI13
aI1
aI5
aI4
aI16
aI34
aI7
aI16
aI35
aI25
aI26
aI27
aI16
aI38
aI22
aI24
aI20
aI44
aI32
aI35
aI32
aI35
aI31
aI22
aI19
aI23
aI29
aI9
aI8
aI30
aI30
aI29
aI18
aI8
aI32
aI34
aI29
aI24
aI30
aI22
aI22
aI29
aI23
aI32
aI9
aI4
aI37
aI40
aI24
aI18
aI2
aI21
aI27
aI22
aI25
aI24
aI10
aI3
aI27
aI32
aI23
aI14
aI6
aI29
aI16
aI48
aI30
aI49
aI24
aI39
asI8
(lp8
I2
aI10
aI9
aI12
aI10
aI1
aI8
aI2
aI19
aI3
aI5
aI33
aI2
aI14
aI8
aI6
aI7
aI28
aI12
aI3
aI1
aI30
aI4
aI2
aI53
aI4
aI7
aI8
aI31
aI8
aI43
aI35
aI34
aI34
aI6
aI15
aI3
aI4
aI19
aI14
aI3
aI9
aI5
aI6
aI11
aI24
asI9
(lp9
I17
aI32
aI23
aI25
aI6
aI36
aI22
aI55
aI45
aI23
aI21
aI25
aI18
aI24
aI26
aI26
aI6
aI51
aI31
aI20
aI14
aI22
aI14
aI21
aI28
aI17
aI26
aI32
aI10
aI29
aI21
aI24
aI18
aI32
aI20
aI35
aI17
aI19
aI16
aI35
aI1
aI30
aI25
aI30
aI23
aI17
aI15
aI18
aI25
aI16
aI26
aI26
aI24
aI37
aI27
aI28
aI34
aI26
aI24
aI16
aI17
aI23
aI18
aI27
aI19
aI30
aI34
aI19
aI12
aI16
aI25
aI16
aI23
aI18
aI20
aI6
aI22
aI22
aI19
aI14
aI33
aI37
aI41
aI25
aI30
aI56
aI20
aI28
asI10
(lp10
I11
aI17
aI28
aI13
aI8
aI10
aI8
aI9
aI8
aI10
aI11
aI8
aI12
aI12
aI14
aI12
aI11
aI22
aI11
aI19
aI10
aI14
aI12
aI13
aI13
aI19
aI18
aI13
aI8
aI13
aI8
aI20
aI11
aI10
aI12
aI15
aI33
aI1
aI21
aI9
aI8
aI8
aI13
aI9
aI6
aI12
aI11
aI10
aI10
aI12
aI11
aI9
aI11
aI12
aI11
aI13
aI19
aI14
aI9
aI13
aI10
aI17
aI1
aI12
aI12
aI4
aI7
aI14
aI11
aI8
aI22
aI11
aI10
aI11
aI3
aI15
aI10
aI9
aI7
aI13
aI12
aI9
aI12
aI9
aI15
aI9
aI7
aI8
aI25
aI11
aI10
aI10
aI4
aI8
aI11
aI5
aI10
aI20
aI10
aI12
aI18
aI11
aI12
aI9
aI10
aI12
aI8
aI9
aI18
aI14
aI8
aI13
aI8
aI7
aI12
aI10
aI9
aI2
aI11
aI9
aI17
aI18
aI9
aI11
aI11
aI10
aI17
aI13
aI16
aI8
aI22
aI23
aI11
aI1
aI12
aI13
aI13
aI9
aI9
aI8
aI9
aI8
aI18
aI45
aI10
aI18
aI9
aI12
aI14
aI8
aI5
aI14
aI10
aI12
aI15
aI12
aI9
aI13
aI18
aI5
aI8
aI21
aI18
aI8
aI7
aI8
aI9
aI11
aI3
aI24
aI8
aI15
aI10
aI11
aI9
aI7
aI11
aI13
aI19
asI11
(lp11
I10
aI17
aI30
aI5
aI6
aI9
aI4
aI7
aI12
aI12
aI11
aI13
aI15
aI17
aI22
aI14
aI12
aI20
aI14
aI17
aI18
aI2
aI1
aI7
aI7
aI11
aI18
aI7
aI15
aI12
aI1
aI1
aI24
aI12
aI10
aI10
aI12
aI3
aI21
aI2
aI8
aI12
aI6
aI15
aI47
aI8
aI13
aI1
aI9
aI11
aI15
aI15
aI2
aI17
aI13
aI8
aI16
aI5
aI10
aI2
aI14
aI11
aI14
aI20
aI6
aI14
aI10
aI16
aI2
aI16
aI11
aI1
aI14
aI10
aI15
aI12
aI9
aI11
aI72
aI16
aI14
aI12
aI8
aI13
aI2
aI2
aI5
aI5
aI24
aI24
aI11
aI5
aI10
aI1
aI6
aI11
aI22
aI9
aI2
aI11
aI20
aI15
aI13
aI4
aI13
aI10
aI1
aI14
aI18
aI23
aI11
aI6
aI11
aI14
aI12
aI11
aI1
aI27
aI10
aI10
aI7
aI19
aI15
aI1
aI17
aI10
aI11
aI10
aI12
aI11
aI21
aI5
aI10
aI43
aI7
aI16
aI12
aI10
aI10
aI6
aI5
aI12
aI2
aI12
aI24
aI11
aI11
aI13
aI2
aI20
aI7
aI10
aI12
aI20
aI31
aI11
aI11
aI13
aI12
aI10
aI14
aI13
aI18
asI12
(lp12
I22
aI21
aI10
aI10
aI12
aI14
aI11
aI18
aI18
aI17
aI24
aI15
aI1
aI15
aI19
aI22
aI17
aI17
aI13
aI19
aI28
aI16
aI11
aI19
aI16
aI10
aI12
aI14
aI4
aI7
aI3
aI15
aI12
aI24
aI13
aI18
aI16
aI25
aI15
aI10
aI13
aI17
aI14
aI13
aI15
aI17
aI15
aI13
aI44
aI16
aI12
aI14
aI13
aI10
aI12
aI17
aI6
aI15
aI5
aI14
aI38
aI31
aI11
aI12
aI14
aI4
aI2
aI20
aI7
aI7
aI13
aI12
aI26
aI12
aI11
aI3
aI12
aI59
aI8
aI13
aI12
aI20
aI38
aI32
aI13
aI16
aI15
aI11
aI11
aI17
aI17
aI18
aI12
aI11
aI13
aI12
aI21
aI40
aI18
aI18
aI12
aI32
aI40
aI13
aI32
aI25
aI12
aI12
aI26
aI31
aI12
aI14
aI16
aI12
aI15
aI15
aI14
aI20
asI13
(lp13
I15
aI22
aI8
aI10
aI10
aI9
aI12
aI13
aI12
aI17
aI11
aI12
aI16
aI2
aI16
aI9
aI16
aI12
aI7
aI16
aI12
aI9
aI9
aI12
aI11
aI11
aI10
aI10
aI14
aI12
aI7
aI12
aI2
aI4
aI10
aI12
aI10
aI12
aI12
aI14
aI14
aI13
aI13
aI3
aI11
aI12
aI10
aI10
aI8
aI9
aI11
aI13
aI11
aI14
aI11
aI9
aI4
aI4
aI10
aI7
aI11
aI9
aI5
aI13
aI7
aI11
aI10
aI7
aI19
aI17
aI10
aI10
aI11
aI10
aI10
aI13
aI13
aI15
aI11
aI9
aI12
aI9
aI18
aI16
aI11
aI14
aI10
aI34
aI13
aI11
aI8
aI18
aI5
aI9
aI4
aI14
aI11
aI11
aI13
aI10
aI11
aI12
aI13
aI18
asI14
(lp14
I35
aI42
aI26
aI28
aI23
aI13
aI31
aI2
aI22
aI31
aI31
aI18
aI28
aI49
aI39
aI22
aI39
aI29
aI9
aI9
aI12
aI42
aI33
aI4
aI1
aI23
aI27
aI19
aI13
aI15
aI12
aI17
aI7
aI18
aI37
aI40
aI5
aI28
aI16
aI23
aI35
aI9
aI22
aI29
aI26
aI40
aI1
aI19
aI5
aI21
aI28
aI1
aI40
aI22
aI2
aI25
aI27
aI10
aI7
aI28
aI23
aI29
aI34
aI6
aI10
aI21
aI41
aI30
aI22
aI5
aI26
aI24
aI23
aI28
aI25
aI20
aI31
aI44
aI15
aI34
aI33
aI28
aI14
aI34
aI40
aI46
aI18
aI12
aI31
aI21
aI63
aI40
aI26
aI32
aI25
aI39
aI5
aI25
aI25
aI48
aI21
aI9
aI27
aI27
aI32
aI5
aI1
aI3
aI19
aI32
aI29
aI24
aI28
aI2
aI24
aI34
aI38
asI15
(lp15
I1
aI46
aI19
aI19
aI30
aI20
aI15
aI27
aI32
aI8
aI17
aI21
aI22
aI9
aI17
aI5
aI19
aI41
aI41
aI23
aI5
aI34
aI17
aI22
aI18
aI24
aI7
aI20
aI6
aI25
aI23
aI23
aI22
aI16
aI21
aI13
aI16
aI14
aI6
aI4
aI29
aI16
aI14
aI12
aI24
aI20
aI25
aI22
aI12
aI37
aI14
aI11
aI22
aI24
aI20
aI14
aI15
aI21
aI12
aI9
aI19
aI21
aI42
aI33
aI19
aI14
aI14
aI21
aI16
aI8
aI1
aI12
aI28
aI18
aI11
aI21
aI14
aI16
aI12
aI5
aI36
aI13
aI16
aI13
aI15
aI23
aI20
aI17
aI1
aI6
aI5
aI6
aI16
aI12
aI15
aI28
aI17
aI28
aI39
aI20
aI2
aI28
aI17
aI20
asI16
(lp16
I15
aI16
aI20
aI14
aI9
aI28
aI15
aI17
aI35
aI13
aI10
aI10
aI18
aI19
aI15
aI19
aI16
aI29
aI9
aI16
aI26
aI19
aI21
aI18
aI14
aI17
aI17
aI13
aI14
aI10
aI13
aI15
aI11
aI1
aI19
aI46
aI19
aI4
aI12
aI11
aI22
aI15
aI17
aI11
aI12
aI17
aI16
aI8
aI18
aI17
aI15
aI12
aI12
aI15
aI4
aI14
aI13
aI16
aI10
aI22
aI10
aI14
aI8
aI27
aI12
aI12
aI12
aI8
aI11
aI16
aI18
aI13
aI13
aI9
aI15
aI11
aI13
aI25
aI6
aI2
aI17
aI23
aI17
asI17
(lp17
I16
aI15
aI15
aI14
aI38
aI28
aI15
aI19
aI42
aI13
aI16
aI19
aI25
aI9
aI15
aI15
aI15
aI55
aI12
aI16
aI30
aI22
aI22
aI18
aI12
aI16
aI17
aI13
aI14
aI10
aI2
aI13
aI15
aI10
aI27
aI16
aI18
aI12
aI10
aI5
aI16
aI12
aI12
aI16
aI18
aI18
aI15
aI12
aI16
aI16
aI14
aI13
aI15
aI10
aI26
aI9
aI12
aI26
aI11
aI15
aI13
aI3
aI13
aI14
aI23
aI13
aI13
aI12
aI15
aI11
aI14
aI25
aI2
aI17
aI15
asI18
(lp18
I21
aI9
aI17
aI15
aI15
aI20
aI24
aI21
aI28
aI7
aI5
aI18
aI31
aI26
aI15
aI10
aI15
aI6
aI9
aI22
aI7
aI18
aI15
aI15
aI4
aI24
aI10
aI18
aI23
aI18
aI32
aI13
aI13
aI16
aI25
aI25
aI20
aI16
aI20
aI5
aI6
aI22
aI15
aI19
aI7
aI29
aI1
aI1
aI2
aI10
aI23
aI2
aI3
aI18
aI15
aI22
aI9
aI21
aI15
aI3
aI16
aI4
aI15
aI4
aI5
aI19
aI13
aI14
aI2
aI19
aI26
aI21
aI18
aI8
aI6
aI5
aI18
aI21
aI19
aI24
aI27
aI4
aI10
aI15
aI21
aI21
aI19
aI17
aI24
aI13
aI26
aI17
aI14
aI17
aI23
aI12
aI6
aI26
aI20
aI23
aI21
aI21
aI14
aI12
aI6
aI10
aI1
asI19
(lp19
I16
aI13
aI14
aI17
aI19
aI18
aI22
aI15
aI14
aI28
aI16
aI13
aI17
aI5
aI10
aI15
aI12
aI7
aI19
aI15
aI4
aI15
aI25
aI11
aI13
aI20
aI17
aI18
aI12
aI18
aI14
aI7
aI1
aI23
aI5
aI13
aI6
aI15
aI9
aI18
aI8
aI15
aI11
aI10
aI4
aI13
aI16
aI3
aI1
aI11
aI10
aI4
aI17
aI20
aI20
aI5
aI7
aI17
aI15
aI5
aI11
aI5
aI12
aI14
aI18
aI14
aI5
aI4
aI28
aI8
aI18
aI14
aI13
aI16
aI10
aI20
aI9
aI19
aI10
aI8
aI19
aI18
aI12
aI10
aI2
aI53
asI20
(lp20
I9
aI15
aI12
aI13
aI19
aI9
aI27
aI22
aI11
aI12
aI13
aI10
aI8
aI10
aI17
aI15
aI10
aI14
aI11
aI15
aI14
aI14
aI9
aI12
aI17
aI16
aI13
aI19
aI10
aI12
aI9
aI2
aI7
aI8
aI12
aI8
aI12
aI15
aI29
aI13
aI15
aI8
aI4
aI9
aI13
aI10
aI18
aI13
aI13
aI18
aI14
aI16
aI10
aI12
aI9
aI9
aI14
aI10
aI15
aI10
aI14
aI22
aI11
aI21
aI8
aI11
aI8
aI10
aI11
aI13
aI7
aI16
aI19
aI24
aI13
aI50
aI9
aI14
asI21
(lp21
I10
aI10
aI14
aI4
aI7
aI4
aI15
aI15
aI10
aI15
aI8
aI18
aI7
aI17
aI5
aI6
aI14
aI17
aI3
aI17
aI10
aI4
aI9
aI3
aI12
aI2
aI6
aI13
aI9
aI19
aI14
aI17
aI22
aI9
aI13
aI2
aI16
aI1
aI12
asI22
(lp22
I12
aI5
aI8
aI8
aI1
aI13
aI11
aI14
aI9
aI11
aI22
aI14
aI8
aI26
aI39
aI11
aI12
aI4
aI12
aI13
aI13
aI10
aI6
aI15
aI20
aI4
aI11
aI9
aI9
aI6
aI17
aI11
aI10
aI17
aI11
aI5
aI16
aI11
aI18
aI11
aI8
aI6
aI10
aI9
aI7
aI16
aI8
aI16
aI11
aI8
aI23
aI10
aI4
aI11
aI9
aI8
aI12
aI13
aI9
aI17
aI13
aI11
aI9
aI11
aI18
aI20
aI9
aI5
aI8
aI30
aI18
aI11
aI11
aI10
aI12
aI9
aI10
aI18
aI10
aI7
aI9
aI10
aI11
aI15
aI13
aI10
aI11
aI5
aI16
aI15
aI14
asI23
(lp23
I20
aI15
aI3
aI19
aI22
aI20
aI28
aI19
aI16
aI31
aI16
aI31
aI17
aI19
aI15
aI22
aI6
aI16
aI18
aI28
aI13
aI15
aI25
aI23
aI15
aI16
aI15
aI1
aI6
aI10
aI22
aI25
aI32
aI14
aI18
aI20
aI20
aI18
aI13
aI14
aI11
aI14
aI18
aI14
aI13
aI17
aI25
aI25
aI19
aI18
aI17
aI14
aI13
aI9
aI13
aI15
aI5
aI29
aI4
aI17
aI18
aI15
aI19
aI11
aI25
aI12
aI11
aI23
aI21
aI13
aI11
aI7
aI45
asI24
(lp24
I14
aI21
aI17
aI18
aI14
aI33
aI33
aI14
aI25
aI18
aI15
aI4
aI6
aI16
aI15
aI13
aI12
aI11
aI16
aI14
aI14
aI17
aI15
aI16
aI9
aI17
aI13
aI17
aI20
aI17
aI17
aI15
aI13
aI26
aI3
aI16
aI14
aI18
aI19
aI7
aI17
aI17
aI15
aI14
aI18
aI14
aI6
aI37
aI15
aI25
aI18
aI14
aI16
aI15
aI14
aI14
aI21
aI13
aI19
aI22
aI15
aI19
aI13
aI15
aI11
aI16
aI20
aI20
aI20
aI17
aI16
aI15
aI12
aI12
aI75
asI25
(lp25
I16
aI14
aI13
aI14
aI16
aI23
aI22
aI15
aI34
aI13
aI13
aI35
aI17
aI13
aI18
aI11
aI15
aI12
aI18
aI17
aI26
aI14
aI9
aI1
aI12
aI15
aI14
aI11
aI17
aI12
aI10
aI13
aI13
aI11
aI43
aI5
aI18
aI18
aI14
aI11
aI12
aI11
aI12
aI22
aI8
aI20
aI11
aI12
aI16
aI20
aI13
aI18
aI17
aI12
aI12
aI18
aI13
aI13
aI21
asI26
(lp26
I10
aI12
aI11
aI13
aI12
aI12
aI12
aI20
aI26
aI11
aI10
aI8
aI24
aI7
aI15
aI17
aI17
aI17
aI10
aI11
aI1
aI1
aI8
aI24
aI8
aI14
aI2
aI14
aI8
aI14
aI9
aI11
aI10
aI9
aI17
aI9
aI17
aI6
aI6
aI9
aI17
aI11
aI4
aI13
aI10
aI11
aI30
aI12
aI26
aI7
aI9
asI27
(lp27
I14
aI26
aI17
aI12
aI9
aI18
aI1
aI12
aI2
aI10
aI26
aI9
aI7
aI2
aI11
aI24
aI2
aI4
aI9
aI10
aI19
aI16
aI23
aI5
aI4
aI12
aI20
aI23
aI14
aI11
aI5
aI9
aI11
aI15
aI19
aI19
aI4
aI8
aI21
aI15
asI28
(lp28
I16
aI27
aI23
aI5
aI20
aI21
aI10
aI14
aI15
aI15
aI12
aI15
aI13
asI29
(lp29
I5
aI17
aI135
aI13
aI1
aI7
aI20
aI12
aI9
aI11
aI2
aI12
aI13
aI29
aI5
aI29
aI4
aI10
aI5
aI12
aI13
aI7
aI11
aI19
aI16
aI6
aI7
aI76
aI14
aI5
aI5
aI2
aI1
aI7
aI18
aI7
aI2
aI8
aI16
aI8
aI17
aI17
aI10
aI20
aI12
aI1
aI8
aI8
aI19
aI1
aI1
aI10
aI8
aI11
aI11
aI14
aI2
aI9
aI7
aI19
aI5
aI1
aI8
aI11
aI12
aI27
aI13
aI16
aI7
aI13
aI6
aI11
aI1
aI14
aI8
aI16
aI21
aI11
aI3
aI9
aI11
aI2
aI10
aI12
aI3
aI7
aI11
aI5
aI4
aI35
aI20
aI6
aI35
aI20
aI13
aI14
aI3
aI9
aI17
aI38
aI15
aI11
aI18
aI2
aI14
aI6
aI8
aI10
aI1
aI1
aI18
aI8
aI9
aI1
aI1
aI2
aI1
aI7
aI1
aI13
aI12
aI2
aI19
aI10
aI2
aI1
aI1
aI19
aI14
aI1
aI6
aI9
aI2
aI12
aI15
aI1
aI5
aI9
aI45
aI5
aI13
aI35
aI1
aI17
aI13
aI20
aI16
aI1
aI7
aI12
aI5
aI9
aI13
aI10
aI1
aI7
aI1
aI44
aI15
asI30
(lp30
I2
aI2
aI3
aI17
aI16
aI17
aI22
aI18
aI17
aI14
aI14
aI12
aI12
aI14
aI15
aI10
aI6
aI8
aI6
aI335
aI18
aI3
aI9
aI17
aI15
aI3
aI7
asI31
(lp31
I8
aI331
aI8
aI8
aI3
aI5
aI7
aI3
aI3
aI4
aI4
aI232
aI6
aI6
aI3
aI1
aI5
aI1
aI2
aI33
aI207
aI5
aI491
aI5
aI7
aI5
aI13
aI7
asI32
(lp32
I4
aI9
aI397
aI1
aI16
aI12
aI1
aI3
aI10
aI16
aI8
aI12
aI7
aI4
aI17
aI2
aI13
aI2
aI1
aI9
aI12
aI4
aI31
aI2
aI12
aI6
aI5
aI8
aI11
aI17
aI6
aI1
aI4
aI4
aI8
aI241
aI6
aI2
aI6
aI9
aI70
aI26
aI8
aI178
aI19
aI30
aI17
aI3
aI6
aI5
aI19
aI11
aI36
aI570
aI127
aI7
aI3
aI13
aI4
aI1
aI1
aI7
aI6
aI9
asI33
(lp33
I350
aI403
aI79
aI829
aI79
aI13
aI2
aI594
aI123
aI517
asI34
(lp34
I11
aI6
aI18
aI1
aI7
aI8
aI7
aI7
aI1056
asI35
(lp35
I24
aI37
aI19
aI28
aI36
asI36
(lp36
I15
aI8
asI37
(lp37
I48
aI21
aI14
aI77
aI60
aI8
aI633
aI1065
aI547
aI213
aI617
aI46
aI6
aI67
aI146
aI163
aI6
aI696
aI6
aI338
aI699
aI631
aI1000
aI590
aI353
aI632
aI689
aI128
aI338
aI41
aI3
aI124
aI311
aI367
aI7
aI68
aI601
aI855
asI38
(lp38
I3
aI256
aI2
aI4
aI2
aI3
aI1
aI10
aI8
aI7
aI2
aI14
aI8
aI1
aI9
aI19
aI6
aI4
aI3
aI10
aI8
aI1
aI5
aI2
aI10
aI7
aI5
aI5
aI2
aI6
aI5
aI3
aI3
aI2
aI4
aI1
aI5
aI7
aI2
aI4
aI5
aI1
aI6
aI16
aI7
aI14
aI4
aI13
aI4
aI41
asI39
(lp39
I5
aI4
aI506
aI391
aI65
aI49
aI116
aI534
aI3
aI627
aI24
aI3
aI47
aI6
aI126
aI28
aI32
aI53
aI9
aI26
aI59
aI3
aI8
aI707
aI204
aI11
aI1
aI1
aI130
aI17
aI428
aI19
aI7
aI72
aI6
aI21
aI5
aI59
aI1
aI1
aI4
aI13
aI8
aI6
aI4
aI6
aI1
aI4
aI3
aI7
aI5
aI4
aI1
aI4
aI18
aI4
aI1
aI5
aI1
aI4
aI5
aI1
aI4
asI40
(lp40
I227
aI182
asI41
(lp41
I144
asI42
(lp42
I610
aI152
aI16
aI6
aI23
aI59
aI119
aI1
aI700
aI56
aI308
aI200
aI368
aI48
aI308
aI3
aI166
aI375
aI43
aI642
aI359
aI34
aI168
aI3
aI26
aI51
aI1
aI18
aI328
aI615
asI43
(lp43
I787
aI7
aI704
aI3
aI370
aI102
aI404
aI6
aI247
aI38
aI2
aI824
aI473
aI706
aI86
aI18
aI224
aI1
aI16
aI98
aI47
aI8
aI7
aI9
aI626
aI16
aI8
aI1
aI10
aI3
aI398
aI12
aI348
aI100
aI10
aI505
aI5
aI52
aI694
aI2
aI2
aI7
aI9
aI118
aI16
aI1
aI89
aI239
aI859
aI3
aI1046
aI564
asI44
(lp44
I192
aI158
aI840
aI346
aI192
aI11
aI588
aI853
aI1115
aI506
aI1
aI16
aI9
aI2
aI40
aI1149
aI583
aI114
aI405
aI102
aI1053
aI31
aI4
aI103
aI9
aI533
aI915
aI221
aI708
aI264
aI535
aI146
aI30
aI11
aI215
aI690
aI855
aI537
asI45
(lp45
I911
aI4
aI1
aI3
aI6
aI17
aI463
aI226
aI562
aI804
aI152
aI11
aI20
aI111
aI16
aI79
aI85
aI2
asI46
(lp46
I87
aI8
aI514
aI99
aI9
aI13
aI554
aI16
aI13
aI8
aI7
aI1
aI3
aI6
aI1
aI2
aI846
aI155
aI173
aI720
aI6
aI13
aI5
aI89
aI82
aI3
asI48
(lp47
I72
asI50
(lp48
I14
aI971
aI2
aI861
aI1046
aI8
asI52
(lp49
I335
asI53
(lp50
I6
aI5
aI8
aI6
aI6
aI6
aI2
aI5
aI5
aI5
aI6
aI10
aI6
aI7
aI7
aI16
aI8
aI12
aI1
aI7
aI6
aI6
aI12
aI8
aI7
aI5
aI11
aI20
aI5
aI7
aI6
aI7
aI7
aI10
aI5
aI5
aI6
aI6
aI10
aI9
aI7
aI6
aI8
aI6
aI6
aI9
aI7
aI8
aI5
aI7
aI5
aI9
aI9
aI12
aI8
aI7
aI6
aI9
aI4
aI6
aI5
aI9
aI6
aI9
aI8
aI6
aI6
aI9
aI5
aI5
aI3
aI10
aI9
aI6
aI7
aI6
aI8
aI8
aI5
aI5
aI7
aI5
aI5
aI4
aI9
aI5
aI5
aI7
aI7
aI5
aI8
aI9
aI5
aI11
aI9
aI11
aI8
aI7
aI4
aI9
aI5
aI4
aI5
aI9
aI8
aI15
aI4
aI7
aI4
aI5
aI8
aI7
aI7
aI6
aI2
aI3
aI7
aI5
aI5
aI7
aI11
aI8
aI6
aI7
aI4
aI4
aI9
aI5
aI7
aI8
aI8
aI7
aI5
aI7
aI6
aI8
aI12
aI5
aI4
aI6
aI8
aI7
aI9
aI5
aI10
aI7
aI6
aI1
aI4
aI14
aI11
aI4
aI6
aI8
aI7
aI8
aI5
aI5
aI6
aI11
aI6
aI8
aI11
aI5
aI7
aI5
aI7
aI9
aI4
aI6
aI8
aI9
aI6
aI4
aI5
aI10
aI7
aI7
aI10
aI12
aI6
aI9
aI7
aI7
aI6
aI7
aI28
aI10
aI6
aI8
aI6
aI7
aI7
asI54
(lp51
I10
aI6
aI16
aI7
aI9
aI9
aI9
aI8
aI9
aI10
aI14
aI12
aI11
aI15
aI13
aI17
aI9
aI9
aI9
aI8
aI21
aI14
aI9
aI8
aI10
aI26
aI8
aI3
aI10
aI1
aI8
aI12
aI14
aI10
aI8
aI4
aI11
aI16
aI11
aI12
aI9
aI12
aI9
aI9
aI9
aI11
aI11
aI11
aI8
aI10
aI10
aI12
aI28
aI4
aI7
aI10
aI12
aI15
aI10
aI9
aI12
aI6
aI8
aI8
aI12
aI10
aI13
aI15
aI9
aI7
aI16
aI7
aI9
aI4
aI13
aI17
aI11
aI3
aI9
aI23
aI15
aI7
aI8
aI6
aI8
aI8
aI7
aI16
aI11
aI9
aI10
aI8
aI11
aI12
aI11
aI11
aI40
aI15
aI7
aI9
aI7
aI7
aI8
aI14
aI10
aI7
aI4
aI5
aI8
aI8
aI26
aI11
aI11
aI10
aI9
aI10
aI7
aI7
aI12
aI16
aI15
aI9
aI10
aI6
aI7
aI14
aI4
aI11
aI6
aI12
aI12
aI7
aI17
aI1
aI6
aI11
aI20
aI10
aI5
aI10
aI11
aI10
aI12
aI7
aI12
aI10
aI8
aI9
aI7
aI7
aI12
aI7
aI8
aI13
aI11
aI11
aI7
aI8
aI7
aI13
aI9
aI12
aI16
aI9
aI4
aI8
aI3
aI8
aI9
aI6
aI9
aI14
aI5
aI14
aI5
aI6
aI8
aI14
aI4
aI9
aI10
aI13
aI18
aI12
aI11
aI10
aI10
aI7
aI12
aI26
aI5
aI13
aI14
aI9
aI13
aI12
asI55
(lp52
I9
aI7
aI9
aI10
aI6
aI8
aI9
aI3
aI9
aI8
aI10
aI11
aI5
aI11
aI11
aI7
aI5
aI10
aI4
aI7
asI56
(lp53
I5
aI2
aI13
aI13
aI7
aI14
aI3
aI1
aI5
aI1
aI10
aI9
aI13
aI9
aI5
aI14
aI8
asI57
(lp54
I4
aI4
aI8
aI1
aI3
aI2
aI3
aI5
aI2
aI2
aI4
aI1
aI20
aI1
aI7
aI1
aI1
aI2
aI1
aI35
aI3
aI17
aI5
aI14
aI1
aI8
aI2
aI3
aI6
aI6
aI2
aI1
aI5
aI9
aI3
aI4
aI1
asI58
(lp55
I2
aI2
aI3
aI4
aI1
aI3
aI12
aI1
aI4
aI2
aI4
aI25
aI6
asI59
(lp56
I3
aI4
aI3
aI2
aI4
asI60
(lp57
I9
aI2
aI9
aI2
aI9
aI6
aI3
aI2
aI11
aI4
aI8
aI4
aI3
aI3
aI8
aI2
aI7
aI6
asI61
(lp58
I2
aI7
aI3
aI2
asI62
(lp59
I9
aI3
aI4
aI7
aI4
aI2
aI5
aI7
asI63
(lp60
I5
aI1
aI1
aI2
aI5
aI3
aI8
aI1
aI1
aI1
aI1
aI1
aI1
aI1
aI1
aI1
aI1
aI1
aI1
aI1
aI1
asI64
(lp61
I2
aI4
aI2
aI2
aI4
aI2
aI1
aI1
aI1
aI5
asI65
(lp62
I1
aI1
aI2
aI4
aI1
aI3
aI3
aI4
aI3
aI2
aI2
aI2
aI4
aI1
aI1
aI3
aI1
aI4
aI5
aI3
aI1
aI6
aI3
aI1
aI3
aI2
aI3
aI3
aI5
aI2
aI3
aI5
aI6
aI1
aI2
aI9
aI9
aI9
aI3
aI1
aI6
aI2
aI6
aI2
aI9
aI1
aI6
aI1
aI1
aI2
aI2
aI4
aI1
aI2
aI8
aI4
aI1
aI2
aI1
aI8
as.